; ModuleID = '14/250.c'
source_filename = "14/250.c"
target datalayout = "e-m:e-p270:32:32-p271:32:32-p272:64:64-i64:64-f80:128-n8:16:32:64-S128"
target triple = "x86_64-pc-linux-gnu"

%struct.student = type { i32, i32, i32 }

@.str = private unnamed_addr constant [3 x i8] c"%d\00", align 1
@.str.1 = private unnamed_addr constant [9 x i8] c"%d %d %d\00", align 1
@.str.2 = private unnamed_addr constant [7 x i8] c"%d %d\0A\00", align 1

; Function Attrs: noinline nounwind uwtable
define dso_local i32 @main() #0 {
  %1 = alloca i32, align 4
  %2 = alloca i32, align 4
  %3 = alloca i32, align 4
  %4 = alloca i32, align 4
  %5 = alloca i32, align 4
  %6 = alloca i32, align 4
  %7 = alloca i32, align 4
  %8 = alloca %struct.student*, align 8
  %9 = alloca i32*, align 8
  store i32 0, i32* %1, align 4
  %10 = call i32 (i8*, ...) @__isoc99_scanf(i8* getelementptr inbounds ([3 x i8], [3 x i8]* @.str, i64 0, i64 0), i32* %2)
  %11 = load i32, i32* %2, align 4
  store i32 %11, i32* %3, align 4
  %12 = load i32, i32* %2, align 4
  %13 = sext i32 %12 to i64
  %14 = mul i64 12, %13
  %15 = call noalias i8* @malloc(i64 %14) #3
  %16 = bitcast i8* %15 to %struct.student*
  store %struct.student* %16, %struct.student** %8, align 8
  %17 = load i32, i32* %3, align 4
  %18 = sext i32 %17 to i64
  %19 = mul i64 4, %18
  %20 = call noalias i8* @malloc(i64 %19) #3
  %21 = bitcast i8* %20 to i32*
  store i32* %21, i32** %9, align 8
  store i32 0, i32* %4, align 4
  br label %22

22:                                               ; preds = %60, %0
  %23 = load i32, i32* %4, align 4
  %24 = load i32, i32* %2, align 4
  %25 = icmp slt i32 %23, %24
  br i1 %25, label %26, label %63

26:                                               ; preds = %22
  %27 = load %struct.student*, %struct.student** %8, align 8
  %28 = load i32, i32* %4, align 4
  %29 = sext i32 %28 to i64
  %30 = getelementptr inbounds %struct.student, %struct.student* %27, i64 %29
  %31 = getelementptr inbounds %struct.student, %struct.student* %30, i32 0, i32 0
  %32 = load %struct.student*, %struct.student** %8, align 8
  %33 = load i32, i32* %4, align 4
  %34 = sext i32 %33 to i64
  %35 = getelementptr inbounds %struct.student, %struct.student* %32, i64 %34
  %36 = getelementptr inbounds %struct.student, %struct.student* %35, i32 0, i32 1
  %37 = load %struct.student*, %struct.student** %8, align 8
  %38 = load i32, i32* %4, align 4
  %39 = sext i32 %38 to i64
  %40 = getelementptr inbounds %struct.student, %struct.student* %37, i64 %39
  %41 = getelementptr inbounds %struct.student, %struct.student* %40, i32 0, i32 2
  %42 = call i32 (i8*, ...) @__isoc99_scanf(i8* getelementptr inbounds ([9 x i8], [9 x i8]* @.str.1, i64 0, i64 0), i32* %31, i32* %36, i32* %41)
  %43 = load %struct.student*, %struct.student** %8, align 8
  %44 = load i32, i32* %4, align 4
  %45 = sext i32 %44 to i64
  %46 = getelementptr inbounds %struct.student, %struct.student* %43, i64 %45
  %47 = getelementptr inbounds %struct.student, %struct.student* %46, i32 0, i32 1
  %48 = load i32, i32* %47, align 4
  %49 = load %struct.student*, %struct.student** %8, align 8
  %50 = load i32, i32* %4, align 4
  %51 = sext i32 %50 to i64
  %52 = getelementptr inbounds %struct.student, %struct.student* %49, i64 %51
  %53 = getelementptr inbounds %struct.student, %struct.student* %52, i32 0, i32 2
  %54 = load i32, i32* %53, align 4
  %55 = add nsw i32 %48, %54
  %56 = load i32*, i32** %9, align 8
  %57 = load i32, i32* %4, align 4
  %58 = sext i32 %57 to i64
  %59 = getelementptr inbounds i32, i32* %56, i64 %58
  store i32 %55, i32* %59, align 4
  br label %60

60:                                               ; preds = %26
  %61 = load i32, i32* %4, align 4
  %62 = add nsw i32 %61, 1
  store i32 %62, i32* %4, align 4
  br label %22

63:                                               ; preds = %22
  store i32 0, i32* %4, align 4
  br label %64

64:                                               ; preds = %140, %63
  %65 = load i32, i32* %4, align 4
  %66 = icmp slt i32 %65, 3
  br i1 %66, label %67, label %143

67:                                               ; preds = %64
  store i32 0, i32* %5, align 4
  br label %68

68:                                               ; preds = %136, %67
  %69 = load i32, i32* %5, align 4
  %70 = load i32, i32* %3, align 4
  %71 = sub nsw i32 %70, 1
  %72 = load i32, i32* %4, align 4
  %73 = sub nsw i32 %71, %72
  %74 = icmp slt i32 %69, %73
  br i1 %74, label %75, label %139

75:                                               ; preds = %68
  %76 = load i32*, i32** %9, align 8
  %77 = load i32, i32* %5, align 4
  %78 = sext i32 %77 to i64
  %79 = getelementptr inbounds i32, i32* %76, i64 %78
  %80 = load i32, i32* %79, align 4
  %81 = load i32*, i32** %9, align 8
  %82 = load i32, i32* %5, align 4
  %83 = add nsw i32 %82, 1
  %84 = sext i32 %83 to i64
  %85 = getelementptr inbounds i32, i32* %81, i64 %84
  %86 = load i32, i32* %85, align 4
  %87 = icmp sge i32 %80, %86
  br i1 %87, label %88, label %135

88:                                               ; preds = %75
  %89 = load i32*, i32** %9, align 8
  %90 = load i32, i32* %5, align 4
  %91 = sext i32 %90 to i64
  %92 = getelementptr inbounds i32, i32* %89, i64 %91
  %93 = load i32, i32* %92, align 4
  store i32 %93, i32* %6, align 4
  %94 = load i32*, i32** %9, align 8
  %95 = load i32, i32* %5, align 4
  %96 = add nsw i32 %95, 1
  %97 = sext i32 %96 to i64
  %98 = getelementptr inbounds i32, i32* %94, i64 %97
  %99 = load i32, i32* %98, align 4
  %100 = load i32*, i32** %9, align 8
  %101 = load i32, i32* %5, align 4
  %102 = sext i32 %101 to i64
  %103 = getelementptr inbounds i32, i32* %100, i64 %102
  store i32 %99, i32* %103, align 4
  %104 = load i32, i32* %6, align 4
  %105 = load i32*, i32** %9, align 8
  %106 = load i32, i32* %5, align 4
  %107 = add nsw i32 %106, 1
  %108 = sext i32 %107 to i64
  %109 = getelementptr inbounds i32, i32* %105, i64 %108
  store i32 %104, i32* %109, align 4
  %110 = load %struct.student*, %struct.student** %8, align 8
  %111 = load i32, i32* %5, align 4
  %112 = sext i32 %111 to i64
  %113 = getelementptr inbounds %struct.student, %struct.student* %110, i64 %112
  %114 = getelementptr inbounds %struct.student, %struct.student* %113, i32 0, i32 0
  %115 = load i32, i32* %114, align 4
  store i32 %115, i32* %7, align 4
  %116 = load %struct.student*, %struct.student** %8, align 8
  %117 = load i32, i32* %5, align 4
  %118 = add nsw i32 %117, 1
  %119 = sext i32 %118 to i64
  %120 = getelementptr inbounds %struct.student, %struct.student* %116, i64 %119
  %121 = getelementptr inbounds %struct.student, %struct.student* %120, i32 0, i32 0
  %122 = load i32, i32* %121, align 4
  %123 = load %struct.student*, %struct.student** %8, align 8
  %124 = load i32, i32* %5, align 4
  %125 = sext i32 %124 to i64
  %126 = getelementptr inbounds %struct.student, %struct.student* %123, i64 %125
  %127 = getelementptr inbounds %struct.student, %struct.student* %126, i32 0, i32 0
  store i32 %122, i32* %127, align 4
  %128 = load i32, i32* %7, align 4
  %129 = load %struct.student*, %struct.student** %8, align 8
  %130 = load i32, i32* %5, align 4
  %131 = add nsw i32 %130, 1
  %132 = sext i32 %131 to i64
  %133 = getelementptr inbounds %struct.student, %struct.student* %129, i64 %132
  %134 = getelementptr inbounds %struct.student, %struct.student* %133, i32 0, i32 0
  store i32 %128, i32* %134, align 4
  br label %135

135:                                              ; preds = %88, %75
  br label %136

136:                                              ; preds = %135
  %137 = load i32, i32* %5, align 4
  %138 = add nsw i32 %137, 1
  store i32 %138, i32* %5, align 4
  br label %68

139:                                              ; preds = %68
  br label %140

140:                                              ; preds = %139
  %141 = load i32, i32* %4, align 4
  %142 = add nsw i32 %141, 1
  store i32 %142, i32* %4, align 4
  br label %64

143:                                              ; preds = %64
  %144 = load i32, i32* %2, align 4
  %145 = sub nsw i32 %144, 1
  store i32 %145, i32* %4, align 4
  br label %146

146:                                              ; preds = %164, %143
  %147 = load i32, i32* %4, align 4
  %148 = load i32, i32* %2, align 4
  %149 = sub nsw i32 %148, 3
  %150 = icmp sge i32 %147, %149
  br i1 %150, label %151, label %167

151:                                              ; preds = %146
  %152 = load %struct.student*, %struct.student** %8, align 8
  %153 = load i32, i32* %4, align 4
  %154 = sext i32 %153 to i64
  %155 = getelementptr inbounds %struct.student, %struct.student* %152, i64 %154
  %156 = getelementptr inbounds %struct.student, %struct.student* %155, i32 0, i32 0
  %157 = load i32, i32* %156, align 4
  %158 = load i32*, i32** %9, align 8
  %159 = load i32, i32* %4, align 4
  %160 = sext i32 %159 to i64
  %161 = getelementptr inbounds i32, i32* %158, i64 %160
  %162 = load i32, i32* %161, align 4
  %163 = call i32 (i8*, ...) @printf(i8* getelementptr inbounds ([7 x i8], [7 x i8]* @.str.2, i64 0, i64 0), i32 %157, i32 %162)
  br label %164

164:                                              ; preds = %151
  %165 = load i32, i32* %4, align 4
  %166 = add nsw i32 %165, -1
  store i32 %166, i32* %4, align 4
  br label %146

167:                                              ; preds = %146
  %168 = load %struct.student*, %struct.student** %8, align 8
  %169 = bitcast %struct.student* %168 to i8*
  call void @free(i8* %169) #3
  %170 = load i32*, i32** %9, align 8
  %171 = bitcast i32* %170 to i8*
  call void @free(i8* %171) #3
  ret i32 0
}

declare dso_local i32 @__isoc99_scanf(i8*, ...) #1

; Function Attrs: nounwind
declare dso_local noalias i8* @malloc(i64) #2

declare dso_local i32 @printf(i8*, ...) #1

; Function Attrs: nounwind
declare dso_local void @free(i8*) #2


!llvm.module.flags = !{!0}
!llvm.ident = !{!1}

!0 = !{i32 1, !"wchar_size", i32 4}
!1 = !{!"clang version 10.0.0-4ubuntu1 "}
